; ModuleID = '52/5449.c'
source_filename = "52/5449.c"
target datalayout = "e-m:e-p270:32:32-p271:32:32-p272:64:64-i64:64-f80:128-n8:16:32:64-S128"
target triple = "x86_64-pc-linux-gnu"

@.str = private unnamed_addr constant [7 x i8] c"%d %d\0A\00", align 1
@.str.1 = private unnamed_addr constant [4 x i8] c"%d \00", align 1
@.str.2 = private unnamed_addr constant [3 x i8] c"%d\00", align 1

; Function Attrs: noinline nounwind uwtable
define dso_local i32 @main() #0 {
  %1 = alloca i32, align 4
  %2 = alloca i32, align 4
  %3 = alloca i32, align 4
  %4 = alloca [200 x i32], align 16
  %5 = alloca i32, align 4
  %6 = alloca i32, align 4
  %7 = alloca i32, align 4
  %8 = alloca i32, align 4
  store i32 0, i32* %1, align 4
  store i32 0, i32* %2, align 4
  store i32 0, i32* %3, align 4
  %9 = call i32 (i8*, ...) @__isoc99_scanf(i8* getelementptr inbounds ([7 x i8], [7 x i8]* @.str, i64 0, i64 0), i32* %2, i32* %3)
  store i32 1, i32* %5, align 4
  br label %10

10:                                               ; preds = %19, %0
  %11 = load i32, i32* %5, align 4
  %12 = load i32, i32* %2, align 4
  %13 = icmp sle i32 %11, %12
  br i1 %13, label %14, label %22

14:                                               ; preds = %10
  %15 = load i32, i32* %5, align 4
  %16 = sext i32 %15 to i64
  %17 = getelementptr inbounds [200 x i32], [200 x i32]* %4, i64 0, i64 %16
  %18 = call i32 (i8*, ...) @__isoc99_scanf(i8* getelementptr inbounds ([4 x i8], [4 x i8]* @.str.1, i64 0, i64 0), i32* %17)
  br label %19

19:                                               ; preds = %14
  %20 = load i32, i32* %5, align 4
  %21 = add nsw i32 %20, 1
  store i32 %21, i32* %5, align 4
  br label %10

22:                                               ; preds = %10
  %23 = load i32, i32* %2, align 4
  store i32 %23, i32* %6, align 4
  br label %24

24:                                               ; preds = %37, %22
  %25 = load i32, i32* %6, align 4
  %26 = icmp sge i32 %25, 1
  br i1 %26, label %27, label %40

27:                                               ; preds = %24
  %28 = load i32, i32* %6, align 4
  %29 = sext i32 %28 to i64
  %30 = getelementptr inbounds [200 x i32], [200 x i32]* %4, i64 0, i64 %29
  %31 = load i32, i32* %30, align 4
  %32 = load i32, i32* %6, align 4
  %33 = load i32, i32* %3, align 4
  %34 = add nsw i32 %32, %33
  %35 = sext i32 %34 to i64
  %36 = getelementptr inbounds [200 x i32], [200 x i32]* %4, i64 0, i64 %35
  store i32 %31, i32* %36, align 4
  br label %37

37:                                               ; preds = %27
  %38 = load i32, i32* %6, align 4
  %39 = add nsw i32 %38, -1
  store i32 %39, i32* %6, align 4
  br label %24

40:                                               ; preds = %24
  store i32 1, i32* %7, align 4
  br label %41

41:                                               ; preds = %55, %40
  %42 = load i32, i32* %7, align 4
  %43 = load i32, i32* %3, align 4
  %44 = icmp sle i32 %42, %43
  br i1 %44, label %45, label %58

45:                                               ; preds = %41
  %46 = load i32, i32* %2, align 4
  %47 = load i32, i32* %7, align 4
  %48 = add nsw i32 %46, %47
  %49 = sext i32 %48 to i64
  %50 = getelementptr inbounds [200 x i32], [200 x i32]* %4, i64 0, i64 %49
  %51 = load i32, i32* %50, align 4
  %52 = load i32, i32* %7, align 4
  %53 = sext i32 %52 to i64
  %54 = getelementptr inbounds [200 x i32], [200 x i32]* %4, i64 0, i64 %53
  store i32 %51, i32* %54, align 4
  br label %55

55:                                               ; preds = %45
  %56 = load i32, i32* %7, align 4
  %57 = add nsw i32 %56, 1
  store i32 %57, i32* %7, align 4
  br label %41

58:                                               ; preds = %41
  store i32 1, i32* %8, align 4
  br label %59

59:                                               ; preds = %80, %58
  %60 = load i32, i32* %8, align 4
  %61 = load i32, i32* %2, align 4
  %62 = icmp sle i32 %60, %61
  br i1 %62, label %63, label %83

63:                                               ; preds = %59
  %64 = load i32, i32* %8, align 4
  %65 = load i32, i32* %2, align 4
  %66 = icmp ne i32 %64, %65
  br i1 %66, label %67, label %73

67:                                               ; preds = %63
  %68 = load i32, i32* %8, align 4
  %69 = sext i32 %68 to i64
  %70 = getelementptr inbounds [200 x i32], [200 x i32]* %4, i64 0, i64 %69
  %71 = load i32, i32* %70, align 4
  %72 = call i32 (i8*, ...) @printf(i8* getelementptr inbounds ([4 x i8], [4 x i8]* @.str.1, i64 0, i64 0), i32 %71)
  br label %79

73:                                               ; preds = %63
  %74 = load i32, i32* %2, align 4
  %75 = sext i32 %74 to i64
  %76 = getelementptr inbounds [200 x i32], [200 x i32]* %4, i64 0, i64 %75
  %77 = load i32, i32* %76, align 4
  %78 = call i32 (i8*, ...) @printf(i8* getelementptr inbounds ([3 x i8], [3 x i8]* @.str.2, i64 0, i64 0), i32 %77)
  br label %79

79:                                               ; preds = %73, %67
  br label %80

80:                                               ; preds = %79
  %81 = load i32, i32* %8, align 4
  %82 = add nsw i32 %81, 1
  store i32 %82, i32* %8, align 4
  br label %59

83:                                               ; preds = %59
  ret i32 0
}

declare dso_local i32 @__isoc99_scanf(i8*, ...) #1

declare dso_local i32 @printf(i8*, ...) #1


!llvm.module.flags = !{!0}
!llvm.ident = !{!1}

!0 = !{i32 1, !"wchar_size", i32 4}
!1 = !{!"clang version 10.0.0-4ubuntu1 "}
