; ModuleID = 'source-C-CXX/51/5449.c'
source_filename = "source-C-CXX/51/5449.c"
target datalayout = "e-m:e-p270:32:32-p271:32:32-p272:64:64-i64:64-f80:128-n8:16:32:64-S128"
target triple = "x86_64-pc-linux-gnu"

@.str = private unnamed_addr constant [7 x i8] c"%d %d\0A\00", align 1
@.str.1 = private unnamed_addr constant [4 x i8] c"%d \00", align 1
@.str.2 = private unnamed_addr constant [3 x i8] c"%d\00", align 1

; Function Attrs: nofree nounwind sspstrong uwtable
define dso_local i32 @main() local_unnamed_addr #0 {
  %1 = alloca i32, align 4
  %2 = alloca i32, align 4
  %3 = alloca [200 x i32], align 16
  %4 = ptrtoint [200 x i32]* %3 to i64
  %5 = bitcast i32* %1 to i8*
  call void @llvm.lifetime.start.p0i8(i64 4, i8* nonnull %5) #4
  store i32 0, i32* %1, align 4, !tbaa !5
  %6 = bitcast i32* %2 to i8*
  call void @llvm.lifetime.start.p0i8(i64 4, i8* nonnull %6) #4
  store i32 0, i32* %2, align 4, !tbaa !5
  %7 = call i32 (i8*, ...) @__isoc99_scanf(i8* getelementptr inbounds ([7 x i8], [7 x i8]* @.str, i64 0, i64 0), i32* nonnull %1, i32* nonnull %2)
  %8 = bitcast [200 x i32]* %3 to i8*
  call void @llvm.lifetime.start.p0i8(i64 800, i8* nonnull %8) #4
  %9 = load i32, i32* %1, align 4, !tbaa !5
  %10 = icmp slt i32 %9, 1
  br i1 %10, label %11, label %132

11:                                               ; preds = %0
  %12 = load i32, i32* %2, align 4
  br label %140

13:                                               ; preds = %132
  %14 = load i32, i32* %2, align 4
  %15 = icmp sgt i32 %137, 0
  br i1 %15, label %16, label %140

16:                                               ; preds = %13
  %17 = zext i32 %137 to i64
  %18 = icmp ult i32 %137, 8
  br i1 %18, label %129, label %19

19:                                               ; preds = %16
  %20 = add nsw i64 %17, -1
  %21 = sext i32 %137 to i64
  %22 = sext i32 %14 to i64
  %23 = add nsw i64 %21, %22
  %24 = shl nsw i64 %23, 2
  %25 = add i64 %24, %4
  %26 = call { i64, i1 } @llvm.umul.with.overflow.i64(i64 %20, i64 4)
  %27 = extractvalue { i64, i1 } %26, 0
  %28 = extractvalue { i64, i1 } %26, 1
  %29 = icmp ugt i64 %27, %25
  %30 = or i1 %29, %28
  %31 = shl nuw nsw i64 %17, 2
  %32 = add i64 %31, %4
  %33 = call { i64, i1 } @llvm.umul.with.overflow.i64(i64 %20, i64 4)
  %34 = extractvalue { i64, i1 } %33, 0
  %35 = extractvalue { i64, i1 } %33, 1
  %36 = icmp ugt i64 %34, %32
  %37 = or i1 %36, %35
  %38 = or i1 %30, %37
  br i1 %38, label %129, label %39

39:                                               ; preds = %19
  %40 = sext i32 %137 to i64
  %41 = sext i32 %14 to i64
  %42 = add nsw i64 %40, %41
  %43 = add nsw i64 %42, 1
  %44 = sub nsw i64 %43, %17
  %45 = getelementptr [200 x i32], [200 x i32]* %3, i64 0, i64 %44
  %46 = getelementptr [200 x i32], [200 x i32]* %3, i64 0, i64 %43
  %47 = getelementptr inbounds [200 x i32], [200 x i32]* %3, i64 0, i64 1
  %48 = add nuw nsw i64 %17, 1
  %49 = getelementptr [200 x i32], [200 x i32]* %3, i64 0, i64 %48
  %50 = icmp ult i32* %45, %49
  %51 = icmp ult i32* %47, %46
  %52 = and i1 %50, %51
  br i1 %52, label %129, label %53

53:                                               ; preds = %39
  %54 = and i64 %17, 4294967288
  %55 = and i64 %17, 7
  %56 = trunc i64 %54 to i32
  %57 = sub i32 %137, %56
  %58 = add nsw i64 %54, -8
  %59 = lshr exact i64 %58, 3
  %60 = add nuw nsw i64 %59, 1
  %61 = and i64 %60, 1
  %62 = icmp eq i64 %58, 0
  br i1 %62, label %106, label %63

63:                                               ; preds = %53
  %64 = and i64 %60, 4611686018427387902
  br label %65

65:                                               ; preds = %65, %63
  %66 = phi i64 [ 0, %63 ], [ %103, %65 ]
  %67 = phi i64 [ %64, %63 ], [ %104, %65 ]
  %68 = sub i64 %17, %66
  %69 = trunc i64 %66 to i32
  %70 = sub i32 %137, %69
  %71 = getelementptr inbounds [200 x i32], [200 x i32]* %3, i64 0, i64 %68
  %72 = getelementptr inbounds i32, i32* %71, i64 -3
  %73 = bitcast i32* %72 to <4 x i32>*
  %74 = load <4 x i32>, <4 x i32>* %73, align 4, !tbaa !5, !alias.scope !9
  %75 = getelementptr inbounds i32, i32* %71, i64 -7
  %76 = bitcast i32* %75 to <4 x i32>*
  %77 = load <4 x i32>, <4 x i32>* %76, align 4, !tbaa !5, !alias.scope !9
  %78 = add nsw i32 %14, %70
  %79 = sext i32 %78 to i64
  %80 = getelementptr inbounds [200 x i32], [200 x i32]* %3, i64 0, i64 %79
  %81 = getelementptr inbounds i32, i32* %80, i64 -3
  %82 = bitcast i32* %81 to <4 x i32>*
  store <4 x i32> %74, <4 x i32>* %82, align 4, !tbaa !5, !alias.scope !12, !noalias !9
  %83 = getelementptr inbounds i32, i32* %80, i64 -7
  %84 = bitcast i32* %83 to <4 x i32>*
  store <4 x i32> %77, <4 x i32>* %84, align 4, !tbaa !5, !alias.scope !12, !noalias !9
  %85 = or i64 %66, 8
  %86 = sub i64 %17, %85
  %87 = trunc i64 %85 to i32
  %88 = sub i32 %137, %87
  %89 = getelementptr inbounds [200 x i32], [200 x i32]* %3, i64 0, i64 %86
  %90 = getelementptr inbounds i32, i32* %89, i64 -3
  %91 = bitcast i32* %90 to <4 x i32>*
  %92 = load <4 x i32>, <4 x i32>* %91, align 4, !tbaa !5, !alias.scope !9
  %93 = getelementptr inbounds i32, i32* %89, i64 -7
  %94 = bitcast i32* %93 to <4 x i32>*
  %95 = load <4 x i32>, <4 x i32>* %94, align 4, !tbaa !5, !alias.scope !9
  %96 = add nsw i32 %14, %88
  %97 = sext i32 %96 to i64
  %98 = getelementptr inbounds [200 x i32], [200 x i32]* %3, i64 0, i64 %97
  %99 = getelementptr inbounds i32, i32* %98, i64 -3
  %100 = bitcast i32* %99 to <4 x i32>*
  store <4 x i32> %92, <4 x i32>* %100, align 4, !tbaa !5, !alias.scope !12, !noalias !9
  %101 = getelementptr inbounds i32, i32* %98, i64 -7
  %102 = bitcast i32* %101 to <4 x i32>*
  store <4 x i32> %95, <4 x i32>* %102, align 4, !tbaa !5, !alias.scope !12, !noalias !9
  %103 = add nuw i64 %66, 16
  %104 = add i64 %67, -2
  %105 = icmp eq i64 %104, 0
  br i1 %105, label %106, label %65, !llvm.loop !14

106:                                              ; preds = %65, %53
  %107 = phi i64 [ 0, %53 ], [ %103, %65 ]
  %108 = icmp eq i64 %61, 0
  br i1 %108, label %127, label %109

109:                                              ; preds = %106
  %110 = sub i64 %17, %107
  %111 = trunc i64 %107 to i32
  %112 = sub i32 %137, %111
  %113 = getelementptr inbounds [200 x i32], [200 x i32]* %3, i64 0, i64 %110
  %114 = getelementptr inbounds i32, i32* %113, i64 -3
  %115 = bitcast i32* %114 to <4 x i32>*
  %116 = load <4 x i32>, <4 x i32>* %115, align 4, !tbaa !5, !alias.scope !9
  %117 = getelementptr inbounds i32, i32* %113, i64 -7
  %118 = bitcast i32* %117 to <4 x i32>*
  %119 = load <4 x i32>, <4 x i32>* %118, align 4, !tbaa !5, !alias.scope !9
  %120 = add nsw i32 %14, %112
  %121 = sext i32 %120 to i64
  %122 = getelementptr inbounds [200 x i32], [200 x i32]* %3, i64 0, i64 %121
  %123 = getelementptr inbounds i32, i32* %122, i64 -3
  %124 = bitcast i32* %123 to <4 x i32>*
  store <4 x i32> %116, <4 x i32>* %124, align 4, !tbaa !5, !alias.scope !12, !noalias !9
  %125 = getelementptr inbounds i32, i32* %122, i64 -7
  %126 = bitcast i32* %125 to <4 x i32>*
  store <4 x i32> %119, <4 x i32>* %126, align 4, !tbaa !5, !alias.scope !12, !noalias !9
  br label %127

127:                                              ; preds = %106, %109
  %128 = icmp eq i64 %54, %17
  br i1 %128, label %140, label %129

129:                                              ; preds = %39, %19, %16, %127
  %130 = phi i64 [ %17, %39 ], [ %17, %19 ], [ %17, %16 ], [ %55, %127 ]
  %131 = phi i32 [ %137, %39 ], [ %137, %19 ], [ %137, %16 ], [ %57, %127 ]
  br label %239

132:                                              ; preds = %0, %132
  %133 = phi i64 [ %136, %132 ], [ 1, %0 ]
  %134 = getelementptr inbounds [200 x i32], [200 x i32]* %3, i64 0, i64 %133
  %135 = call i32 (i8*, ...) @__isoc99_scanf(i8* getelementptr inbounds ([4 x i8], [4 x i8]* @.str.1, i64 0, i64 0), i32* nonnull %134)
  %136 = add nuw nsw i64 %133, 1
  %137 = load i32, i32* %1, align 4, !tbaa !5
  %138 = sext i32 %137 to i64
  %139 = icmp slt i64 %133, %138
  br i1 %139, label %132, label %13, !llvm.loop !17

140:                                              ; preds = %239, %127, %11, %13
  %141 = phi i32 [ %12, %11 ], [ %14, %13 ], [ %14, %127 ], [ %14, %239 ]
  %142 = phi i32 [ %9, %11 ], [ %137, %13 ], [ %137, %127 ], [ %137, %239 ]
  %143 = icmp slt i32 %141, 1
  br i1 %143, label %250, label %144

144:                                              ; preds = %140
  %145 = sext i32 %142 to i64
  %146 = add nuw i32 %141, 1
  %147 = zext i32 %146 to i64
  %148 = add nsw i64 %147, -1
  %149 = icmp ult i64 %148, 8
  br i1 %149, label %219, label %150

150:                                              ; preds = %144
  %151 = getelementptr inbounds [200 x i32], [200 x i32]* %3, i64 0, i64 1
  %152 = getelementptr [200 x i32], [200 x i32]* %3, i64 0, i64 %147
  %153 = add nsw i64 %145, 1
  %154 = getelementptr [200 x i32], [200 x i32]* %3, i64 0, i64 %153
  %155 = add nsw i64 %145, %147
  %156 = getelementptr [200 x i32], [200 x i32]* %3, i64 0, i64 %155
  %157 = icmp ult i32* %151, %156
  %158 = icmp ult i32* %154, %152
  %159 = and i1 %157, %158
  br i1 %159, label %219, label %160

160:                                              ; preds = %150
  %161 = and i64 %148, -8
  %162 = or i64 %161, 1
  %163 = add nsw i64 %161, -8
  %164 = lshr exact i64 %163, 3
  %165 = add nuw nsw i64 %164, 1
  %166 = and i64 %165, 1
  %167 = icmp eq i64 %163, 0
  br i1 %167, label %202, label %168

168:                                              ; preds = %160
  %169 = and i64 %165, 4611686018427387902
  br label %170

170:                                              ; preds = %170, %168
  %171 = phi i64 [ 0, %168 ], [ %197, %170 ]
  %172 = phi i64 [ %169, %168 ], [ %198, %170 ]
  %173 = or i64 %171, 1
  %174 = add nsw i64 %173, %145
  %175 = getelementptr inbounds [200 x i32], [200 x i32]* %3, i64 0, i64 %174
  %176 = bitcast i32* %175 to <4 x i32>*
  %177 = load <4 x i32>, <4 x i32>* %176, align 4, !tbaa !5, !alias.scope !18
  %178 = getelementptr inbounds i32, i32* %175, i64 4
  %179 = bitcast i32* %178 to <4 x i32>*
  %180 = load <4 x i32>, <4 x i32>* %179, align 4, !tbaa !5, !alias.scope !18
  %181 = getelementptr inbounds [200 x i32], [200 x i32]* %3, i64 0, i64 %173
  %182 = bitcast i32* %181 to <4 x i32>*
  store <4 x i32> %177, <4 x i32>* %182, align 4, !tbaa !5, !alias.scope !21, !noalias !18
  %183 = getelementptr inbounds i32, i32* %181, i64 4
  %184 = bitcast i32* %183 to <4 x i32>*
  store <4 x i32> %180, <4 x i32>* %184, align 4, !tbaa !5, !alias.scope !21, !noalias !18
  %185 = or i64 %171, 9
  %186 = add nsw i64 %185, %145
  %187 = getelementptr inbounds [200 x i32], [200 x i32]* %3, i64 0, i64 %186
  %188 = bitcast i32* %187 to <4 x i32>*
  %189 = load <4 x i32>, <4 x i32>* %188, align 4, !tbaa !5, !alias.scope !18
  %190 = getelementptr inbounds i32, i32* %187, i64 4
  %191 = bitcast i32* %190 to <4 x i32>*
  %192 = load <4 x i32>, <4 x i32>* %191, align 4, !tbaa !5, !alias.scope !18
  %193 = getelementptr inbounds [200 x i32], [200 x i32]* %3, i64 0, i64 %185
  %194 = bitcast i32* %193 to <4 x i32>*
  store <4 x i32> %189, <4 x i32>* %194, align 4, !tbaa !5, !alias.scope !21, !noalias !18
  %195 = getelementptr inbounds i32, i32* %193, i64 4
  %196 = bitcast i32* %195 to <4 x i32>*
  store <4 x i32> %192, <4 x i32>* %196, align 4, !tbaa !5, !alias.scope !21, !noalias !18
  %197 = add nuw i64 %171, 16
  %198 = add i64 %172, -2
  %199 = icmp eq i64 %198, 0
  br i1 %199, label %200, label %170, !llvm.loop !23

200:                                              ; preds = %170
  %201 = or i64 %197, 1
  br label %202

202:                                              ; preds = %200, %160
  %203 = phi i64 [ 1, %160 ], [ %201, %200 ]
  %204 = icmp eq i64 %166, 0
  br i1 %204, label %217, label %205

205:                                              ; preds = %202
  %206 = add nsw i64 %203, %145
  %207 = getelementptr inbounds [200 x i32], [200 x i32]* %3, i64 0, i64 %206
  %208 = bitcast i32* %207 to <4 x i32>*
  %209 = load <4 x i32>, <4 x i32>* %208, align 4, !tbaa !5, !alias.scope !18
  %210 = getelementptr inbounds i32, i32* %207, i64 4
  %211 = bitcast i32* %210 to <4 x i32>*
  %212 = load <4 x i32>, <4 x i32>* %211, align 4, !tbaa !5, !alias.scope !18
  %213 = getelementptr inbounds [200 x i32], [200 x i32]* %3, i64 0, i64 %203
  %214 = bitcast i32* %213 to <4 x i32>*
  store <4 x i32> %209, <4 x i32>* %214, align 4, !tbaa !5, !alias.scope !21, !noalias !18
  %215 = getelementptr inbounds i32, i32* %213, i64 4
  %216 = bitcast i32* %215 to <4 x i32>*
  store <4 x i32> %212, <4 x i32>* %216, align 4, !tbaa !5, !alias.scope !21, !noalias !18
  br label %217

217:                                              ; preds = %202, %205
  %218 = icmp eq i64 %148, %161
  br i1 %218, label %250, label %219

219:                                              ; preds = %150, %144, %217
  %220 = phi i64 [ 1, %150 ], [ 1, %144 ], [ %162, %217 ]
  %221 = sub nsw i64 %147, %220
  %222 = xor i64 %220, -1
  %223 = add nsw i64 %222, %147
  %224 = and i64 %221, 3
  %225 = icmp eq i64 %224, 0
  br i1 %225, label %236, label %226

226:                                              ; preds = %219, %226
  %227 = phi i64 [ %233, %226 ], [ %220, %219 ]
  %228 = phi i64 [ %234, %226 ], [ %224, %219 ]
  %229 = add nsw i64 %227, %145
  %230 = getelementptr inbounds [200 x i32], [200 x i32]* %3, i64 0, i64 %229
  %231 = load i32, i32* %230, align 4, !tbaa !5
  %232 = getelementptr inbounds [200 x i32], [200 x i32]* %3, i64 0, i64 %227
  store i32 %231, i32* %232, align 4, !tbaa !5
  %233 = add nuw nsw i64 %227, 1
  %234 = add i64 %228, -1
  %235 = icmp eq i64 %234, 0
  br i1 %235, label %236, label %226, !llvm.loop !24

236:                                              ; preds = %226, %219
  %237 = phi i64 [ %220, %219 ], [ %233, %226 ]
  %238 = icmp ult i64 %223, 3
  br i1 %238, label %250, label %252

239:                                              ; preds = %129, %239
  %240 = phi i64 [ %249, %239 ], [ %130, %129 ]
  %241 = phi i32 [ %247, %239 ], [ %131, %129 ]
  %242 = getelementptr inbounds [200 x i32], [200 x i32]* %3, i64 0, i64 %240
  %243 = load i32, i32* %242, align 4, !tbaa !5
  %244 = add nsw i32 %14, %241
  %245 = sext i32 %244 to i64
  %246 = getelementptr inbounds [200 x i32], [200 x i32]* %3, i64 0, i64 %245
  store i32 %243, i32* %246, align 4, !tbaa !5
  %247 = add nsw i32 %241, -1
  %248 = icmp sgt i64 %240, 1
  %249 = add nsw i64 %240, -1
  br i1 %248, label %239, label %140, !llvm.loop !26

250:                                              ; preds = %236, %252, %217, %140
  %251 = icmp slt i32 %142, 1
  br i1 %251, label %275, label %276

252:                                              ; preds = %236, %252
  %253 = phi i64 [ %273, %252 ], [ %237, %236 ]
  %254 = add nsw i64 %253, %145
  %255 = getelementptr inbounds [200 x i32], [200 x i32]* %3, i64 0, i64 %254
  %256 = load i32, i32* %255, align 4, !tbaa !5
  %257 = getelementptr inbounds [200 x i32], [200 x i32]* %3, i64 0, i64 %253
  store i32 %256, i32* %257, align 4, !tbaa !5
  %258 = add nuw nsw i64 %253, 1
  %259 = add nsw i64 %258, %145
  %260 = getelementptr inbounds [200 x i32], [200 x i32]* %3, i64 0, i64 %259
  %261 = load i32, i32* %260, align 4, !tbaa !5
  %262 = getelementptr inbounds [200 x i32], [200 x i32]* %3, i64 0, i64 %258
  store i32 %261, i32* %262, align 4, !tbaa !5
  %263 = add nuw nsw i64 %253, 2
  %264 = add nsw i64 %263, %145
  %265 = getelementptr inbounds [200 x i32], [200 x i32]* %3, i64 0, i64 %264
  %266 = load i32, i32* %265, align 4, !tbaa !5
  %267 = getelementptr inbounds [200 x i32], [200 x i32]* %3, i64 0, i64 %263
  store i32 %266, i32* %267, align 4, !tbaa !5
  %268 = add nuw nsw i64 %253, 3
  %269 = add nsw i64 %268, %145
  %270 = getelementptr inbounds [200 x i32], [200 x i32]* %3, i64 0, i64 %269
  %271 = load i32, i32* %270, align 4, !tbaa !5
  %272 = getelementptr inbounds [200 x i32], [200 x i32]* %3, i64 0, i64 %268
  store i32 %271, i32* %272, align 4, !tbaa !5
  %273 = add nuw nsw i64 %253, 4
  %274 = icmp eq i64 %273, %147
  br i1 %274, label %250, label %252, !llvm.loop !27

275:                                              ; preds = %276, %250
  call void @llvm.lifetime.end.p0i8(i64 800, i8* nonnull %8) #4
  call void @llvm.lifetime.end.p0i8(i64 4, i8* nonnull %6) #4
  call void @llvm.lifetime.end.p0i8(i64 4, i8* nonnull %5) #4
  ret i32 0

276:                                              ; preds = %250, %276
  %277 = phi i64 [ %287, %276 ], [ 1, %250 ]
  %278 = phi i32 [ %288, %276 ], [ %142, %250 ]
  %279 = zext i32 %278 to i64
  %280 = icmp eq i64 %277, %279
  %281 = sext i32 %278 to i64
  %282 = select i1 %280, i64 %281, i64 %277
  %283 = select i1 %280, i8* getelementptr inbounds ([3 x i8], [3 x i8]* @.str.2, i64 0, i64 0), i8* getelementptr inbounds ([4 x i8], [4 x i8]* @.str.1, i64 0, i64 0)
  %284 = getelementptr inbounds [200 x i32], [200 x i32]* %3, i64 0, i64 %282
  %285 = load i32, i32* %284, align 4, !tbaa !5
  %286 = call i32 (i8*, ...) @printf(i8* nonnull dereferenceable(1) %283, i32 %285)
  %287 = add nuw nsw i64 %277, 1
  %288 = load i32, i32* %1, align 4, !tbaa !5
  %289 = sext i32 %288 to i64
  %290 = icmp slt i64 %277, %289
  br i1 %290, label %276, label %275, !llvm.loop !28
}

; Function Attrs: argmemonly mustprogress nofree nosync nounwind willreturn
declare void @llvm.lifetime.start.p0i8(i64 immarg, i8* nocapture) #1

; Function Attrs: nofree nounwind
declare noundef i32 @__isoc99_scanf(i8* nocapture noundef readonly, ...) local_unnamed_addr #2

; Function Attrs: argmemonly mustprogress nofree nosync nounwind willreturn
declare void @llvm.lifetime.end.p0i8(i64 immarg, i8* nocapture) #1

; Function Attrs: nofree nounwind
declare noundef i32 @printf(i8* nocapture noundef readonly, ...) local_unnamed_addr #2

; Function Attrs: nofree nosync nounwind readnone speculatable willreturn
declare { i64, i1 } @llvm.umul.with.overflow.i64(i64, i64) #3


!llvm.module.flags = !{!0, !1, !2, !3}
!llvm.ident = !{!4}

!0 = !{i32 1, !"wchar_size", i32 4}
!1 = !{i32 7, !"PIC Level", i32 2}
!2 = !{i32 7, !"PIE Level", i32 2}
!3 = !{i32 7, !"uwtable", i32 1}
!4 = !{!"clang version 13.0.0"}
!5 = !{!6, !6, i64 0}
!6 = !{!"int", !7, i64 0}
!7 = !{!"omnipotent char", !8, i64 0}
!8 = !{!"Simple C/C++ TBAA"}
!9 = !{!10}
!10 = distinct !{!10, !11}
!11 = distinct !{!11, !"LVerDomain"}
!12 = !{!13}
!13 = distinct !{!13, !11}
!14 = distinct !{!14, !15, !16}
!15 = !{!"llvm.loop.mustprogress"}
!16 = !{!"llvm.loop.isvectorized", i32 1}
!17 = distinct !{!17, !15}
!18 = !{!19}
!19 = distinct !{!19, !20}
!20 = distinct !{!20, !"LVerDomain"}
!21 = !{!22}
!22 = distinct !{!22, !20}
!23 = distinct !{!23, !15, !16}
!24 = distinct !{!24, !25}
!25 = !{!"llvm.loop.unroll.disable"}
!26 = distinct !{!26, !15, !16}
!27 = distinct !{!27, !15, !16}
!28 = distinct !{!28, !15}
